target datalayout = "e-m:e-p270:32:32-p271:32:32-p272:64:64-i64:64-i128:128-f80:128-n8:16:32:64-S128"
target triple = "x86_64-pc-linux-gnu"

%struct._lv_global_t = type { i8, i8, %struct.lv_ll_t, ptr, ptr, %struct.lv_ll_t, i8, i32, i32, ptr, %struct.lv_ll_t, ptr, %struct.lv_ll_t, ptr, ptr, i32, ptr, i8, i32, i32, ptr, i32, %struct.lv_timer_state_t, %struct.lv_anim_state_t, %struct.lv_tick_state_t, %struct._lv_draw_buf_handlers_t, %struct._lv_draw_buf_handlers_t, %struct._lv_draw_buf_handlers_t, %struct.lv_ll_t, ptr, ptr, %struct.lv_draw_global_info_t, [4 x %struct.lv_draw_sw_mask_radius_circle_dsc_t], ptr, ptr, ptr, %struct.lv_tlsf_state_t, %struct.lv_ll_t, ptr, ptr, %struct.lv_style_t, i64, ptr, i32, ptr }
%struct.lv_timer_state_t = type { %struct.lv_ll_t, i8, i8, i8, i8, i32, i8, i32, i32, i32, i32, ptr, ptr }
%struct.lv_anim_state_t = type { i8, i8, ptr, %struct.lv_ll_t }
%struct.lv_tick_state_t = type { i32, i8, ptr, ptr }
%struct._lv_draw_buf_handlers_t = type { ptr, ptr, ptr, ptr, ptr, ptr }
%struct.lv_draw_global_info_t = type { ptr, i32, i32, i32, i32, i8 }
%struct.lv_draw_sw_mask_radius_circle_dsc_t = type { ptr, ptr, ptr, ptr, i32, i32, i32 }
%struct.lv_tlsf_state_t = type { ptr, i64, i64, %struct.lv_ll_t }
%struct.lv_ll_t = type { i32, ptr, ptr }
%struct.lv_style_t = type { ptr, i32, i8 }
%struct._lv_anim_t = type { ptr, ptr, ptr, ptr, ptr, ptr, ptr, ptr, ptr, i32, i32, i32, i32, i32, i32, i32, i32, i32, %union._lv_anim_path_para_t, i32, i8 }
%union._lv_anim_path_para_t = type { %struct.lv_anim_bezier3_para_t }
%struct.lv_anim_bezier3_para_t = type { i16, i16, i16, i16 }

@lv_global = external global %struct._lv_global_t, align 8

; Function Attrs: nounwind uwtable
define ptr @lv_anim_get(ptr noundef %0, ptr noundef %1) #0 {
  %3 = alloca ptr, align 8
  %4 = alloca ptr, align 8
  %5 = alloca ptr, align 8
  %6 = alloca ptr, align 8
  %7 = alloca i32, align 4
  store ptr %0, ptr %4, align 8, !tbaa !21
  store ptr %1, ptr %5, align 8, !tbaa !21
  call void @llvm.lifetime.start.p0(i64 8, ptr %6) #4
  %8 = call ptr @lv_ll_get_head(ptr noundef getelementptr inbounds nuw (%struct.lv_anim_state_t, ptr getelementptr inbounds nuw (%struct._lv_global_t, ptr @lv_global, i32 0, i32 23), i32 0, i32 3))
  store ptr %8, ptr %6, align 8, !tbaa !21
  br label %9

9:                                                ; preds = %30, %2
  %10 = load ptr, ptr %6, align 8, !tbaa !21
  %11 = icmp ne ptr %10, null
  br i1 %11, label %12, label %33

12:                                               ; preds = %9
  %13 = load ptr, ptr %6, align 8, !tbaa !21
  %14 = getelementptr inbounds nuw %struct._lv_anim_t, ptr %13, i32 0, i32 0
  %15 = load ptr, ptr %14, align 8, !tbaa !36
  %16 = load ptr, ptr %4, align 8, !tbaa !21
  %17 = icmp eq ptr %15, %16
  br i1 %17, label %18, label %29

18:                                               ; preds = %12
  %19 = load ptr, ptr %6, align 8, !tbaa !21
  %20 = getelementptr inbounds nuw %struct._lv_anim_t, ptr %19, i32 0, i32 1
  %21 = load ptr, ptr %20, align 8, !tbaa !35
  %22 = load ptr, ptr %5, align 8, !tbaa !21
  %23 = icmp eq ptr %21, %22
  br i1 %23, label %27, label %24

24:                                               ; preds = %18
  %25 = load ptr, ptr %5, align 8, !tbaa !21
  %26 = icmp eq ptr %25, null
  br i1 %26, label %27, label %29

27:                                               ; preds = %24, %18
  %28 = load ptr, ptr %6, align 8, !tbaa !21
  store ptr %28, ptr %3, align 8
  store i32 1, ptr %7, align 4
  br label %34

29:                                               ; preds = %24, %12
  br label %30

30:                                               ; preds = %29
  %31 = load ptr, ptr %6, align 8, !tbaa !21
  %32 = call ptr @lv_ll_get_next(ptr noundef getelementptr inbounds nuw (%struct.lv_anim_state_t, ptr getelementptr inbounds nuw (%struct._lv_global_t, ptr @lv_global, i32 0, i32 23), i32 0, i32 3), ptr noundef %31)
  store ptr %32, ptr %6, align 8, !tbaa !21
  br label %9, !llvm.loop !49

33:                                               ; preds = %9
  store ptr null, ptr %3, align 8
  store i32 1, ptr %7, align 4
  br label %34

34:                                               ; preds = %33, %27
  call void @llvm.lifetime.end.p0(i64 8, ptr %6) #4
  %35 = load ptr, ptr %3, align 8
  ret ptr %35
}

; Function Attrs: nounwind uwtable
define ptr @lv_anim_custom_get(ptr noundef %0, ptr noundef %1) #0 {
  %3 = alloca ptr, align 8
  %4 = alloca ptr, align 8
  store ptr %0, ptr %3, align 8, !tbaa !21
  store ptr %1, ptr %4, align 8, !tbaa !21
  %5 = load ptr, ptr %3, align 8, !tbaa !21
  %6 = icmp ne ptr %5, null
  br i1 %6, label %7, label %11

7:                                                ; preds = %2
  %8 = load ptr, ptr %3, align 8, !tbaa !21
  %9 = getelementptr inbounds nuw %struct._lv_anim_t, ptr %8, i32 0, i32 0
  %10 = load ptr, ptr %9, align 8, !tbaa !36
  br label %12

11:                                               ; preds = %2
  br label %12

12:                                               ; preds = %11, %7
  %13 = phi ptr [ %10, %7 ], [ null, %11 ]
  %14 = load ptr, ptr %4, align 8, !tbaa !21
  %15 = call ptr @lv_anim_get(ptr noundef %13, ptr noundef %14)
  ret ptr %15
}