; Function Attrs: nounwind uwtable
define noundef ptr @lv_anim_custom_get(ptr noundef readonly %0, ptr noundef readnone %1) local_unnamed_addr #0 {
  %.not = icmp eq ptr %0, null
  br i1 %.not, label %5, label %3

3:                                                ; preds = %2
  %4 = load ptr, ptr %0, align 8, !tbaa !34
  br label %5

5:                                                ; preds = %2, %3
  %6 = phi ptr [ %4, %3 ], [ null, %2 ]
  %7 = tail call ptr @lv_ll_get_head(ptr noundef nonnull getelementptr inbounds nuw (i8, ptr @lv_global, i64 304)) #8
  %.not11.i = icmp eq ptr %7, null
  br i1 %.not11.i, label %lv_anim_get.exit, label %.lr.ph.i

.lr.ph.i:                                         ; preds = %5
  %8 = icmp eq ptr %1, null
  br i1 %8, label %.lr.ph.split.us.i, label %.lr.ph.split.i

.lr.ph.split.us.i:                                ; preds = %.lr.ph.i, %11
  %.012.us.i = phi ptr [ %12, %11 ], [ %7, %.lr.ph.i ]
  %9 = load ptr, ptr %.012.us.i, align 8, !tbaa !34
  %10 = icmp eq ptr %9, %6
  br i1 %10, label %lv_anim_get.exit, label %11

11:                                               ; preds = %.lr.ph.split.us.i
  %12 = tail call ptr @lv_ll_get_next(ptr noundef nonnull getelementptr inbounds nuw (i8, ptr @lv_global, i64 304), ptr noundef nonnull %.012.us.i) #8
  %.not.us.i = icmp eq ptr %12, null
  br i1 %.not.us.i, label %lv_anim_get.exit, label %.lr.ph.split.us.i, !llvm.loop !46

.lr.ph.split.i:                                   ; preds = %.lr.ph.i, %19
  %.012.i = phi ptr [ %20, %19 ], [ %7, %.lr.ph.i ]
  %13 = load ptr, ptr %.012.i, align 8, !tbaa !34
  %14 = icmp eq ptr %13, %6
  br i1 %14, label %15, label %19

15:                                               ; preds = %.lr.ph.split.i
  %16 = getelementptr inbounds nuw i8, ptr %.012.i, i64 8
  %17 = load ptr, ptr %16, align 8, !tbaa !33
  %18 = icmp eq ptr %17, %1
  br i1 %18, label %lv_anim_get.exit, label %19

19:                                               ; preds = %15, %.lr.ph.split.i
  %20 = tail call ptr @lv_ll_get_next(ptr noundef nonnull getelementptr inbounds nuw (i8, ptr @lv_global, i64 304), ptr noundef nonnull %.012.i) #8
  %.not.i = icmp eq ptr %20, null
  br i1 %.not.i, label %lv_anim_get.exit, label %.lr.ph.split.i, !llvm.loop !46

lv_anim_get.exit:                                 ; preds = %15, %19, %.lr.ph.split.us.i, %11, %5
  %.0.lcssa.i = phi ptr [ null, %5 ], [ %.012.us.i, %.lr.ph.split.us.i ], [ null, %11 ], [ %.012.i, %15 ], [ null, %19 ]
  ret ptr %.0.lcssa.i
}